; Function Attrs: mustprogress uwtable
define void @_ZN6casadi20LinearInterpolantJac4initERKSt3mapINSt7__cxx1112basic_stringIcSt11char_traitsIcESaIcEEENS_11GenericTypeESt4lessIS7_ESaISt4pairIKS7_S8_EEE(ptr noundef nonnull align 8 dereferenceable(1304) %0, ptr noundef nonnull align 8 dereferenceable(48) %1) unnamed_addr #4 align 2 {
  tail call void @_ZN6casadi16FunctionInternal4initERKSt3mapINSt7__cxx1112basic_stringIcSt11char_traitsIcESaIcEEENS_11GenericTypeESt4lessIS7_ESaISt4pairIKS7_S8_EEE(ptr noundef nonnull align 8 dereferenceable(1304) %0, ptr noundef nonnull align 8 dereferenceable(48) %1)
  %3 = getelementptr inbounds i8, ptr %0, i64 704
  %4 = tail call noundef ptr @_ZNK6casadi8Function3getINS_17LinearInterpolantEEEPT_v(ptr noundef nonnull align 8 dereferenceable(8) %3)
  %5 = getelementptr inbounds i8, ptr %4, i64 1312
  %6 = load i64, ptr %5, align 8
  %7 = shl nsw i64 %6, 1
  %8 = getelementptr inbounds i8, ptr %4, i64 1320
  %9 = load i64, ptr %8, align 8
  %10 = add nsw i64 %7, %9
  tail call void @_ZN6casadi16FunctionInternal7alloc_wEmb(ptr noundef nonnull align 8 dereferenceable(1304) %0, i64 noundef %10, i1 noundef zeroext true)
  %11 = load i64, ptr %5, align 8
  %12 = shl nsw i64 %11, 1
  tail call void @_ZN6casadi16FunctionInternal8alloc_iwEmb(ptr noundef nonnull align 8 dereferenceable(1304) %0, i64 noundef %12, i1 noundef zeroext true)
  ret void
}